; ModuleID = '32/1715.c'
source_filename = "32/1715.c"
target datalayout = "e-m:e-p270:32:32-p271:32:32-p272:64:64-i64:64-f80:128-n8:16:32:64-S128"
target triple = "x86_64-pc-linux-gnu"

@.str = private unnamed_addr constant [3 x i8] c"%d\00", align 1
@.str.1 = private unnamed_addr constant [6 x i8] c"%s\0A%s\00", align 1
@.str.2 = private unnamed_addr constant [3 x i8] c"%c\00", align 1
@.str.3 = private unnamed_addr constant [2 x i8] c"\0A\00", align 1

; Function Attrs: noinline nounwind uwtable
define dso_local i32 @main() #0 {
  %1 = alloca i32, align 4
  %2 = alloca [200 x i8], align 16
  %3 = alloca [200 x i8], align 16
  %4 = alloca i32, align 4
  %5 = alloca i32, align 4
  %6 = alloca i32, align 4
  %7 = alloca i32, align 4
  %8 = alloca i32, align 4
  %9 = alloca i32, align 4
  store i32 0, i32* %1, align 4
  %10 = bitcast [200 x i8]* %2 to i8*
  call void @llvm.memset.p0i8.i64(i8* align 16 %10, i8 0, i64 200, i1 false)
  %11 = bitcast [200 x i8]* %3 to i8*
  call void @llvm.memset.p0i8.i64(i8* align 16 %11, i8 0, i64 200, i1 false)
  %12 = call i32 (i8*, ...) @__isoc99_scanf(i8* getelementptr inbounds ([3 x i8], [3 x i8]* @.str, i64 0, i64 0), i32* %4)
  store i32 1, i32* %5, align 4
  br label %13

13:                                               ; preds = %162, %0
  %14 = load i32, i32* %5, align 4
  %15 = load i32, i32* %4, align 4
  %16 = icmp sle i32 %14, %15
  br i1 %16, label %17, label %165

17:                                               ; preds = %13
  %18 = getelementptr inbounds [200 x i8], [200 x i8]* %2, i64 0, i64 0
  %19 = getelementptr inbounds [200 x i8], [200 x i8]* %3, i64 0, i64 0
  %20 = call i32 (i8*, ...) @__isoc99_scanf(i8* getelementptr inbounds ([6 x i8], [6 x i8]* @.str.1, i64 0, i64 0), i8* %18, i8* %19)
  %21 = getelementptr inbounds [200 x i8], [200 x i8]* %3, i64 0, i64 0
  %22 = call i64 @strlen(i8* %21) #4
  %23 = trunc i64 %22 to i32
  store i32 %23, i32* %8, align 4
  %24 = getelementptr inbounds [200 x i8], [200 x i8]* %2, i64 0, i64 0
  %25 = call i64 @strlen(i8* %24) #4
  %26 = trunc i64 %25 to i32
  store i32 %26, i32* %9, align 4
  %27 = load i32, i32* %8, align 4
  %28 = sub nsw i32 %27, 1
  store i32 %28, i32* %6, align 4
  br label %29

29:                                               ; preds = %44, %17
  %30 = load i32, i32* %6, align 4
  %31 = icmp sge i32 %30, 0
  br i1 %31, label %32, label %47

32:                                               ; preds = %29
  %33 = load i32, i32* %6, align 4
  %34 = sext i32 %33 to i64
  %35 = getelementptr inbounds [200 x i8], [200 x i8]* %3, i64 0, i64 %34
  %36 = load i8, i8* %35, align 1
  %37 = load i32, i32* %6, align 4
  %38 = load i32, i32* %9, align 4
  %39 = add nsw i32 %37, %38
  %40 = load i32, i32* %8, align 4
  %41 = sub nsw i32 %39, %40
  %42 = sext i32 %41 to i64
  %43 = getelementptr inbounds [200 x i8], [200 x i8]* %3, i64 0, i64 %42
  store i8 %36, i8* %43, align 1
  br label %44

44:                                               ; preds = %32
  %45 = load i32, i32* %6, align 4
  %46 = add nsw i32 %45, -1
  store i32 %46, i32* %6, align 4
  br label %29

47:                                               ; preds = %29
  store i32 0, i32* %6, align 4
  br label %48

48:                                               ; preds = %58, %47
  %49 = load i32, i32* %6, align 4
  %50 = load i32, i32* %9, align 4
  %51 = load i32, i32* %8, align 4
  %52 = sub nsw i32 %50, %51
  %53 = icmp slt i32 %49, %52
  br i1 %53, label %54, label %61

54:                                               ; preds = %48
  %55 = load i32, i32* %6, align 4
  %56 = sext i32 %55 to i64
  %57 = getelementptr inbounds [200 x i8], [200 x i8]* %3, i64 0, i64 %56
  store i8 48, i8* %57, align 1
  br label %58

58:                                               ; preds = %54
  %59 = load i32, i32* %6, align 4
  %60 = add nsw i32 %59, 1
  store i32 %60, i32* %6, align 4
  br label %48

61:                                               ; preds = %48
  %62 = load i32, i32* %9, align 4
  %63 = sub nsw i32 %62, 1
  store i32 %63, i32* %6, align 4
  br label %64

64:                                               ; preds = %121, %61
  %65 = load i32, i32* %6, align 4
  %66 = icmp sge i32 %65, 0
  br i1 %66, label %67, label %124

67:                                               ; preds = %64
  %68 = load i32, i32* %6, align 4
  %69 = sext i32 %68 to i64
  %70 = getelementptr inbounds [200 x i8], [200 x i8]* %2, i64 0, i64 %69
  %71 = load i8, i8* %70, align 1
  %72 = sext i8 %71 to i32
  %73 = load i32, i32* %6, align 4
  %74 = sext i32 %73 to i64
  %75 = getelementptr inbounds [200 x i8], [200 x i8]* %3, i64 0, i64 %74
  %76 = load i8, i8* %75, align 1
  %77 = sext i8 %76 to i32
  %78 = icmp sge i32 %72, %77
  br i1 %78, label %79, label %96

79:                                               ; preds = %67
  %80 = load i32, i32* %6, align 4
  %81 = sext i32 %80 to i64
  %82 = getelementptr inbounds [200 x i8], [200 x i8]* %2, i64 0, i64 %81
  %83 = load i8, i8* %82, align 1
  %84 = sext i8 %83 to i32
  %85 = load i32, i32* %6, align 4
  %86 = sext i32 %85 to i64
  %87 = getelementptr inbounds [200 x i8], [200 x i8]* %3, i64 0, i64 %86
  %88 = load i8, i8* %87, align 1
  %89 = sext i8 %88 to i32
  %90 = sub nsw i32 %84, %89
  %91 = add nsw i32 %90, 48
  %92 = trunc i32 %91 to i8
  %93 = load i32, i32* %6, align 4
  %94 = sext i32 %93 to i64
  %95 = getelementptr inbounds [200 x i8], [200 x i8]* %2, i64 0, i64 %94
  store i8 %92, i8* %95, align 1
  br label %120

96:                                               ; preds = %67
  %97 = load i32, i32* %6, align 4
  %98 = sext i32 %97 to i64
  %99 = getelementptr inbounds [200 x i8], [200 x i8]* %2, i64 0, i64 %98
  %100 = load i8, i8* %99, align 1
  %101 = sext i8 %100 to i32
  %102 = load i32, i32* %6, align 4
  %103 = sext i32 %102 to i64
  %104 = getelementptr inbounds [200 x i8], [200 x i8]* %3, i64 0, i64 %103
  %105 = load i8, i8* %104, align 1
  %106 = sext i8 %105 to i32
  %107 = sub nsw i32 %101, %106
  %108 = add nsw i32 %107, 48
  %109 = add nsw i32 %108, 10
  %110 = trunc i32 %109 to i8
  %111 = load i32, i32* %6, align 4
  %112 = sext i32 %111 to i64
  %113 = getelementptr inbounds [200 x i8], [200 x i8]* %2, i64 0, i64 %112
  store i8 %110, i8* %113, align 1
  %114 = load i32, i32* %6, align 4
  %115 = sub nsw i32 %114, 1
  %116 = sext i32 %115 to i64
  %117 = getelementptr inbounds [200 x i8], [200 x i8]* %2, i64 0, i64 %116
  %118 = load i8, i8* %117, align 1
  %119 = add i8 %118, -1
  store i8 %119, i8* %117, align 1
  br label %120

120:                                              ; preds = %96, %79
  br label %121

121:                                              ; preds = %120
  %122 = load i32, i32* %6, align 4
  %123 = add nsw i32 %122, -1
  store i32 %123, i32* %6, align 4
  br label %64

124:                                              ; preds = %64
  store i32 0, i32* %7, align 4
  store i32 0, i32* %6, align 4
  br label %125

125:                                              ; preds = %141, %124
  %126 = load i32, i32* %6, align 4
  %127 = load i32, i32* %9, align 4
  %128 = icmp slt i32 %126, %127
  br i1 %128, label %129, label %144

129:                                              ; preds = %125
  %130 = load i32, i32* %6, align 4
  %131 = sext i32 %130 to i64
  %132 = getelementptr inbounds [200 x i8], [200 x i8]* %2, i64 0, i64 %131
  %133 = load i8, i8* %132, align 1
  %134 = sext i8 %133 to i32
  %135 = icmp eq i32 %134, 48
  br i1 %135, label %136, label %139

136:                                              ; preds = %129
  %137 = load i32, i32* %7, align 4
  %138 = add nsw i32 %137, 1
  store i32 %138, i32* %7, align 4
  br label %140

139:                                              ; preds = %129
  br label %144

140:                                              ; preds = %136
  br label %141

141:                                              ; preds = %140
  %142 = load i32, i32* %6, align 4
  %143 = add nsw i32 %142, 1
  store i32 %143, i32* %6, align 4
  br label %125

144:                                              ; preds = %139, %125
  %145 = load i32, i32* %7, align 4
  store i32 %145, i32* %6, align 4
  br label %146

146:                                              ; preds = %157, %144
  %147 = load i32, i32* %6, align 4
  %148 = load i32, i32* %9, align 4
  %149 = icmp slt i32 %147, %148
  br i1 %149, label %150, label %160

150:                                              ; preds = %146
  %151 = load i32, i32* %6, align 4
  %152 = sext i32 %151 to i64
  %153 = getelementptr inbounds [200 x i8], [200 x i8]* %2, i64 0, i64 %152
  %154 = load i8, i8* %153, align 1
  %155 = sext i8 %154 to i32
  %156 = call i32 (i8*, ...) @printf(i8* getelementptr inbounds ([3 x i8], [3 x i8]* @.str.2, i64 0, i64 0), i32 %155)
  br label %157

157:                                              ; preds = %150
  %158 = load i32, i32* %6, align 4
  %159 = add nsw i32 %158, 1
  store i32 %159, i32* %6, align 4
  br label %146

160:                                              ; preds = %146
  %161 = call i32 (i8*, ...) @printf(i8* getelementptr inbounds ([2 x i8], [2 x i8]* @.str.3, i64 0, i64 0))
  br label %162

162:                                              ; preds = %160
  %163 = load i32, i32* %5, align 4
  %164 = add nsw i32 %163, 1
  store i32 %164, i32* %5, align 4
  br label %13

165:                                              ; preds = %13
  %166 = load i32, i32* %1, align 4
  ret i32 %166
}

; Function Attrs: argmemonly nounwind willreturn
declare void @llvm.memset.p0i8.i64(i8* nocapture writeonly, i8, i64, i1 immarg) #1

declare dso_local i32 @__isoc99_scanf(i8*, ...) #2

; Function Attrs: nounwind readonly
declare dso_local i64 @strlen(i8*) #3

declare dso_local i32 @printf(i8*, ...) #2


!llvm.module.flags = !{!0}
!llvm.ident = !{!1}

!0 = !{i32 1, !"wchar_size", i32 4}
!1 = !{!"clang version 10.0.0-4ubuntu1 "}
